target datalayout = "e-m:e-p270:32:32-p271:32:32-p272:64:64-i64:64-i128:128-f80:128-n8:16:32:64-S128"
target triple = "x86_64-pc-linux-gnu"

%struct.H5EA_iblock_t = type { %struct.H5C_cache_entry_t, ptr, ptr, ptr, ptr, i64, i64, ptr, i64, i64, i64 }
%struct.H5C_cache_entry_t = type { ptr, i64, i64, ptr, i8, ptr, i8, i8, i8, i8, i32, i8, i8, i8, i8, i8, i32, ptr, i32, i32, i32, i32, i32, i8, i8, ptr, ptr, ptr, ptr, ptr, ptr, i8, i32, i8, i64, ptr, i64, i64, i32, i8, i32, i32, i8, ptr, ptr, ptr }
%struct.H5EA_hdr_t = type { %struct.H5C_cache_entry_t, %struct.H5EA_create_t, i64, %struct.H5EA_stat_t, %struct.anon.1, i64, i64, i64, ptr, i64, i8, i64, i64, i8, i64, ptr, i64, ptr, i8, ptr, ptr }
%struct.H5EA_create_t = type { ptr, i8, i8, i8, i8, i8, i8 }
%struct.H5EA_stat_t = type { %struct.anon, %struct.anon.0 }
%struct.anon = type { i64, i64, i64 }
%struct.anon.0 = type { i64, i64, i64, i64, i64, i64 }
%struct.anon.1 = type { i64, ptr }
%struct.H5EA_class_t = type { i32, ptr, i64, ptr, ptr, ptr, ptr, ptr, ptr, ptr, ptr }

@H5EA_init_g = external global i8, align 1
@H5_libterm_g = external global i8, align 1
@.str.5 = private unnamed_addr constant [103 x i8] c"generated/home/dtcxzyw/WorkSpace/Projects/compilers/llvm-opt-benchmark/bench/hdf5/hdf5/src/H5EAcache.c\00", align 1
@H5E_EARRAY_g = external global i64, align 8
@.str.19 = private unnamed_addr constant [5 x i8] c"EAIB\00", align 1
@__func__.H5EA__cache_iblock_serialize = private unnamed_addr constant [29 x i8] c"H5EA__cache_iblock_serialize\00", align 1
@H5E_CANTENCODE_g = external global i64, align 8
@.str.25 = private unnamed_addr constant [45 x i8] c"can't encode extensible array index elements\00", align 1

; Function Attrs: nounwind uwtable
define internal i32 @H5EA__cache_iblock_serialize(ptr noundef %0, ptr noundef %1, i64 noundef %2, ptr noundef %3) #0 {
  %5 = alloca ptr, align 8
  %6 = alloca ptr, align 8
  %7 = alloca i64, align 8
  %8 = alloca ptr, align 8
  %9 = alloca ptr, align 8
  %10 = alloca ptr, align 8
  %11 = alloca i32, align 4
  %12 = alloca i32, align 4
  %13 = alloca i8, align 1
  %14 = alloca i64, align 8
  %15 = alloca i64, align 8
  store ptr %0, ptr %5, align 8, !tbaa !81
  store ptr %1, ptr %6, align 8, !tbaa !3
  store i64 %2, ptr %7, align 8, !tbaa !19
  store ptr %3, ptr %8, align 8, !tbaa !3
  call void @llvm.lifetime.start.p0(i64 8, ptr %9) #8
  %16 = load ptr, ptr %8, align 8, !tbaa !3
  store ptr %16, ptr %9, align 8, !tbaa !99
  call void @llvm.lifetime.start.p0(i64 8, ptr %10) #8
  %17 = load ptr, ptr %6, align 8, !tbaa !3
  store ptr %17, ptr %10, align 8, !tbaa !20
  call void @llvm.lifetime.start.p0(i64 4, ptr %11) #8
  call void @llvm.lifetime.start.p0(i64 4, ptr %12) #8
  store i32 0, ptr %12, align 4, !tbaa !22
  call void @llvm.lifetime.start.p0(i64 1, ptr %13) #8
  store i8 0, ptr %13, align 1, !tbaa !11
  %18 = load i8, ptr @H5EA_init_g, align 1, !tbaa !11, !range !13, !noundef !14
  %19 = trunc i8 %18 to i1
  br i1 %19, label %24, label %20

20:                                               ; preds = %4
  %21 = load i8, ptr @H5_libterm_g, align 1, !tbaa !11, !range !13, !noundef !14
  %22 = trunc i8 %21 to i1
  %23 = xor i1 %22, true
  br label %24

24:                                               ; preds = %20, %4
  %25 = phi i1 [ true, %4 ], [ %23, %20 ]
  %26 = xor i1 %25, true
  %27 = xor i1 %26, true
  %28 = zext i1 %27 to i32
  %29 = sext i32 %28 to i64
  %30 = call i64 @llvm.expect.i64(i64 %29, i64 1)
  %31 = icmp ne i64 %30, 0
  br i1 %31, label %32, label %215

32:                                               ; preds = %24
  %33 = load ptr, ptr %10, align 8, !tbaa !20
  call void @llvm.memcpy.p0.p0.i64(ptr align 1 %33, ptr align 1 @.str.19, i64 4, i1 false)
  %34 = load ptr, ptr %10, align 8, !tbaa !20
  %35 = getelementptr inbounds i8, ptr %34, i64 4
  store ptr %35, ptr %10, align 8, !tbaa !20
  %36 = load ptr, ptr %10, align 8, !tbaa !20
  %37 = getelementptr inbounds nuw i8, ptr %36, i32 1
  store ptr %37, ptr %10, align 8, !tbaa !20
  store i8 0, ptr %36, align 1, !tbaa !46
  %38 = load ptr, ptr %9, align 8, !tbaa !99
  %39 = getelementptr inbounds nuw %struct.H5EA_iblock_t, ptr %38, i32 0, i32 4
  %40 = load ptr, ptr %39, align 8, !tbaa !71
  %41 = getelementptr inbounds nuw %struct.H5EA_hdr_t, ptr %40, i32 0, i32 1
  %42 = getelementptr inbounds nuw %struct.H5EA_create_t, ptr %41, i32 0, i32 0
  %43 = load ptr, ptr %42, align 8, !tbaa !48
  %44 = getelementptr inbounds nuw %struct.H5EA_class_t, ptr %43, i32 0, i32 0
  %45 = load i32, ptr %44, align 8, !tbaa !82
  %46 = trunc i32 %45 to i8
  %47 = load ptr, ptr %10, align 8, !tbaa !20
  %48 = getelementptr inbounds nuw i8, ptr %47, i32 1
  store ptr %48, ptr %10, align 8, !tbaa !20
  store i8 %46, ptr %47, align 1, !tbaa !46
  %49 = load ptr, ptr %5, align 8, !tbaa !81
  %50 = load ptr, ptr %9, align 8, !tbaa !99
  %51 = getelementptr inbounds nuw %struct.H5EA_iblock_t, ptr %50, i32 0, i32 4
  %52 = load ptr, ptr %51, align 8, !tbaa !71
  %53 = getelementptr inbounds nuw %struct.H5EA_hdr_t, ptr %52, i32 0, i32 6
  %54 = load i64, ptr %53, align 8, !tbaa !29
  call void @H5F_addr_encode(ptr noundef %49, ptr noundef %10, i64 noundef %54)
  %55 = load ptr, ptr %9, align 8, !tbaa !99
  %56 = getelementptr inbounds nuw %struct.H5EA_iblock_t, ptr %55, i32 0, i32 4
  %57 = load ptr, ptr %56, align 8, !tbaa !71
  %58 = getelementptr inbounds nuw %struct.H5EA_hdr_t, ptr %57, i32 0, i32 1
  %59 = getelementptr inbounds nuw %struct.H5EA_create_t, ptr %58, i32 0, i32 3
  %60 = load i8, ptr %59, align 2, !tbaa !51
  %61 = zext i8 %60 to i32
  %62 = icmp sgt i32 %61, 0
  br i1 %62, label %63, label %128

63:                                               ; preds = %32
  %64 = load ptr, ptr %9, align 8, !tbaa !99
  %65 = getelementptr inbounds nuw %struct.H5EA_iblock_t, ptr %64, i32 0, i32 4
  %66 = load ptr, ptr %65, align 8, !tbaa !71
  %67 = getelementptr inbounds nuw %struct.H5EA_hdr_t, ptr %66, i32 0, i32 1
  %68 = getelementptr inbounds nuw %struct.H5EA_create_t, ptr %67, i32 0, i32 0
  %69 = load ptr, ptr %68, align 8, !tbaa !48
  %70 = getelementptr inbounds nuw %struct.H5EA_class_t, ptr %69, i32 0, i32 6
  %71 = load ptr, ptr %70, align 8, !tbaa !111
  %72 = load ptr, ptr %10, align 8, !tbaa !20
  %73 = load ptr, ptr %9, align 8, !tbaa !99
  %74 = getelementptr inbounds nuw %struct.H5EA_iblock_t, ptr %73, i32 0, i32 1
  %75 = load ptr, ptr %74, align 8, !tbaa !104
  %76 = load ptr, ptr %9, align 8, !tbaa !99
  %77 = getelementptr inbounds nuw %struct.H5EA_iblock_t, ptr %76, i32 0, i32 4
  %78 = load ptr, ptr %77, align 8, !tbaa !71
  %79 = getelementptr inbounds nuw %struct.H5EA_hdr_t, ptr %78, i32 0, i32 1
  %80 = getelementptr inbounds nuw %struct.H5EA_create_t, ptr %79, i32 0, i32 3
  %81 = load i8, ptr %80, align 2, !tbaa !51
  %82 = zext i8 %81 to i64
  %83 = load ptr, ptr %9, align 8, !tbaa !99
  %84 = getelementptr inbounds nuw %struct.H5EA_iblock_t, ptr %83, i32 0, i32 4
  %85 = load ptr, ptr %84, align 8, !tbaa !71
  %86 = getelementptr inbounds nuw %struct.H5EA_hdr_t, ptr %85, i32 0, i32 17
  %87 = load ptr, ptr %86, align 8, !tbaa !105
  %88 = call i32 %71(ptr noundef %72, ptr noundef %75, i64 noundef %82, ptr noundef %87)
  %89 = icmp slt i32 %88, 0
  br i1 %89, label %90, label %109

90:                                               ; preds = %63
  br label %91

91:                                               ; preds = %90
  br label %92

92:                                               ; preds = %91
  br label %93

93:                                               ; preds = %92
  %94 = load i64, ptr @H5E_EARRAY_g, align 8, !tbaa !19
  %95 = load i64, ptr @H5E_CANTENCODE_g, align 8, !tbaa !19
  %96 = call i32 (ptr, ptr, i32, i64, i64, ptr, ...) @H5E_printf_stack(ptr noundef @.str.5, ptr noundef @__func__.H5EA__cache_iblock_serialize, i32 noundef 839, i64 noundef %94, i64 noundef %95, ptr noundef @.str.25)
  br label %97

97:                                               ; preds = %93
  br label %98

98:                                               ; preds = %97
  store i8 1, ptr %13, align 1, !tbaa !11
  %99 = load i8, ptr %13, align 1, !tbaa !11, !range !13, !noundef !14
  %100 = trunc i8 %99 to i1
  %101 = zext i1 %100 to i8
  store i8 %101, ptr %13, align 1, !tbaa !11
  br label %102

102:                                              ; preds = %98
  br label %103

103:                                              ; preds = %102
  br label %104

104:                                              ; preds = %103
  store i32 -1, ptr %12, align 4, !tbaa !22
  br label %214

105:                                              ; No predecessors!
  br label %106

106:                                              ; preds = %105
  br label %107

107:                                              ; preds = %106
  br label %108

108:                                              ; preds = %107
  br label %109

109:                                              ; preds = %108, %63
  %110 = load ptr, ptr %9, align 8, !tbaa !99
  %111 = getelementptr inbounds nuw %struct.H5EA_iblock_t, ptr %110, i32 0, i32 4
  %112 = load ptr, ptr %111, align 8, !tbaa !71
  %113 = getelementptr inbounds nuw %struct.H5EA_hdr_t, ptr %112, i32 0, i32 1
  %114 = getelementptr inbounds nuw %struct.H5EA_create_t, ptr %113, i32 0, i32 3
  %115 = load i8, ptr %114, align 2, !tbaa !51
  %116 = zext i8 %115 to i32
  %117 = load ptr, ptr %9, align 8, !tbaa !99
  %118 = getelementptr inbounds nuw %struct.H5EA_iblock_t, ptr %117, i32 0, i32 4
  %119 = load ptr, ptr %118, align 8, !tbaa !71
  %120 = getelementptr inbounds nuw %struct.H5EA_hdr_t, ptr %119, i32 0, i32 1
  %121 = getelementptr inbounds nuw %struct.H5EA_create_t, ptr %120, i32 0, i32 1
  %122 = load i8, ptr %121, align 8, !tbaa !49
  %123 = zext i8 %122 to i32
  %124 = mul nsw i32 %116, %123
  %125 = load ptr, ptr %10, align 8, !tbaa !20
  %126 = sext i32 %124 to i64
  %127 = getelementptr inbounds i8, ptr %125, i64 %126
  store ptr %127, ptr %10, align 8, !tbaa !20
  br label %128

128:                                              ; preds = %109, %32
  %129 = load ptr, ptr %9, align 8, !tbaa !99
  %130 = getelementptr inbounds nuw %struct.H5EA_iblock_t, ptr %129, i32 0, i32 9
  %131 = load i64, ptr %130, align 8, !tbaa !74
  %132 = icmp ugt i64 %131, 0
  br i1 %132, label %133, label %152

133:                                              ; preds = %128
  call void @llvm.lifetime.start.p0(i64 8, ptr %14) #8
  store i64 0, ptr %14, align 8, !tbaa !19
  br label %134

134:                                              ; preds = %148, %133
  %135 = load i64, ptr %14, align 8, !tbaa !19
  %136 = load ptr, ptr %9, align 8, !tbaa !99
  %137 = getelementptr inbounds nuw %struct.H5EA_iblock_t, ptr %136, i32 0, i32 9
  %138 = load i64, ptr %137, align 8, !tbaa !74
  %139 = icmp ult i64 %135, %138
  br i1 %139, label %140, label %151

140:                                              ; preds = %134
  %141 = load ptr, ptr %5, align 8, !tbaa !81
  %142 = load ptr, ptr %9, align 8, !tbaa !99
  %143 = getelementptr inbounds nuw %struct.H5EA_iblock_t, ptr %142, i32 0, i32 2
  %144 = load ptr, ptr %143, align 8, !tbaa !106
  %145 = load i64, ptr %14, align 8, !tbaa !19
  %146 = getelementptr inbounds nuw i64, ptr %144, i64 %145
  %147 = load i64, ptr %146, align 8, !tbaa !19
  call void @H5F_addr_encode(ptr noundef %141, ptr noundef %10, i64 noundef %147)
  br label %148

148:                                              ; preds = %140
  %149 = load i64, ptr %14, align 8, !tbaa !19
  %150 = add i64 %149, 1
  store i64 %150, ptr %14, align 8, !tbaa !19
  br label %134, !llvm.loop !112

151:                                              ; preds = %134
  call void @llvm.lifetime.end.p0(i64 8, ptr %14) #8
  br label %152

152:                                              ; preds = %151, %128
  %153 = load ptr, ptr %9, align 8, !tbaa !99
  %154 = getelementptr inbounds nuw %struct.H5EA_iblock_t, ptr %153, i32 0, i32 10
  %155 = load i64, ptr %154, align 8, !tbaa !76
  %156 = icmp ugt i64 %155, 0
  br i1 %156, label %157, label %176

157:                                              ; preds = %152
  call void @llvm.lifetime.start.p0(i64 8, ptr %15) #8
  store i64 0, ptr %15, align 8, !tbaa !19
  br label %158

158:                                              ; preds = %172, %157
  %159 = load i64, ptr %15, align 8, !tbaa !19
  %160 = load ptr, ptr %9, align 8, !tbaa !99
  %161 = getelementptr inbounds nuw %struct.H5EA_iblock_t, ptr %160, i32 0, i32 10
  %162 = load i64, ptr %161, align 8, !tbaa !76
  %163 = icmp ult i64 %159, %162
  br i1 %163, label %164, label %175

164:                                              ; preds = %158
  %165 = load ptr, ptr %5, align 8, !tbaa !81
  %166 = load ptr, ptr %9, align 8, !tbaa !99
  %167 = getelementptr inbounds nuw %struct.H5EA_iblock_t, ptr %166, i32 0, i32 3
  %168 = load ptr, ptr %167, align 8, !tbaa !108
  %169 = load i64, ptr %15, align 8, !tbaa !19
  %170 = getelementptr inbounds nuw i64, ptr %168, i64 %169
  %171 = load i64, ptr %170, align 8, !tbaa !19
  call void @H5F_addr_encode(ptr noundef %165, ptr noundef %10, i64 noundef %171)
  br label %172

172:                                              ; preds = %164
  %173 = load i64, ptr %15, align 8, !tbaa !19
  %174 = add i64 %173, 1
  store i64 %174, ptr %15, align 8, !tbaa !19
  br label %158, !llvm.loop !113

175:                                              ; preds = %158
  call void @llvm.lifetime.end.p0(i64 8, ptr %15) #8
  br label %176

176:                                              ; preds = %175, %152
  %177 = load ptr, ptr %6, align 8, !tbaa !3
  %178 = load ptr, ptr %10, align 8, !tbaa !20
  %179 = load ptr, ptr %6, align 8, !tbaa !3
  %180 = ptrtoint ptr %178 to i64
  %181 = ptrtoint ptr %179 to i64
  %182 = sub i64 %180, %181
  %183 = call i32 @H5_checksum_metadata(ptr noundef %177, i64 noundef %182, i32 noundef 0)
  store i32 %183, ptr %11, align 4, !tbaa !22
  br label %184

184:                                              ; preds = %176
  %185 = load i32, ptr %11, align 4, !tbaa !22
  %186 = and i32 %185, 255
  %187 = trunc i32 %186 to i8
  %188 = load ptr, ptr %10, align 8, !tbaa !20
  store i8 %187, ptr %188, align 1, !tbaa !46
  %189 = load ptr, ptr %10, align 8, !tbaa !20
  %190 = getelementptr inbounds nuw i8, ptr %189, i32 1
  store ptr %190, ptr %10, align 8, !tbaa !20
  %191 = load i32, ptr %11, align 4, !tbaa !22
  %192 = lshr i32 %191, 8
  %193 = and i32 %192, 255
  %194 = trunc i32 %193 to i8
  %195 = load ptr, ptr %10, align 8, !tbaa !20
  store i8 %194, ptr %195, align 1, !tbaa !46
  %196 = load ptr, ptr %10, align 8, !tbaa !20
  %197 = getelementptr inbounds nuw i8, ptr %196, i32 1
  store ptr %197, ptr %10, align 8, !tbaa !20
  %198 = load i32, ptr %11, align 4, !tbaa !22
  %199 = lshr i32 %198, 16
  %200 = and i32 %199, 255
  %201 = trunc i32 %200 to i8
  %202 = load ptr, ptr %10, align 8, !tbaa !20
  store i8 %201, ptr %202, align 1, !tbaa !46
  %203 = load ptr, ptr %10, align 8, !tbaa !20
  %204 = getelementptr inbounds nuw i8, ptr %203, i32 1
  store ptr %204, ptr %10, align 8, !tbaa !20
  %205 = load i32, ptr %11, align 4, !tbaa !22
  %206 = lshr i32 %205, 24
  %207 = and i32 %206, 255
  %208 = trunc i32 %207 to i8
  %209 = load ptr, ptr %10, align 8, !tbaa !20
  store i8 %208, ptr %209, align 1, !tbaa !46
  %210 = load ptr, ptr %10, align 8, !tbaa !20
  %211 = getelementptr inbounds nuw i8, ptr %210, i32 1
  store ptr %211, ptr %10, align 8, !tbaa !20
  br label %212

212:                                              ; preds = %184
  br label %213

213:                                              ; preds = %212
  br label %214

214:                                              ; preds = %213, %104
  br label %215

215:                                              ; preds = %214, %24
  %216 = load i32, ptr %12, align 4, !tbaa !22
  call void @llvm.lifetime.end.p0(i64 1, ptr %13) #8
  call void @llvm.lifetime.end.p0(i64 4, ptr %12) #8
  call void @llvm.lifetime.end.p0(i64 4, ptr %11) #8
  call void @llvm.lifetime.end.p0(i64 8, ptr %10) #8
  call void @llvm.lifetime.end.p0(i64 8, ptr %9) #8
  ret i32 %216
}