; Function Attrs: nounwind uwtable
define internal range(i32 -1, 1) i32 @H5EA__cache_iblock_serialize(ptr noundef %0, ptr noundef %1, i64 %2, ptr noundef readonly captures(none) %3) #0 {
  %5 = alloca ptr, align 8
  call void @llvm.lifetime.start.p0(i64 8, ptr nonnull %5) #6
  %6 = load i8, ptr @H5EA_init_g, align 1, !tbaa !3, !range !7, !noundef !8
  %7 = trunc nuw i8 %6 to i1
  %8 = load i8, ptr @H5_libterm_g, align 1, !range !7
  %9 = trunc nuw i8 %8 to i1
  %10 = xor i1 %9, true
  %11 = select i1 %7, i1 true, i1 %10
  br i1 %11, label %12, label %96, !prof !9

12:                                               ; preds = %4
  store i32 1112097093, ptr %1, align 1
  %13 = getelementptr inbounds nuw i8, ptr %1, i64 4
  %14 = getelementptr inbounds nuw i8, ptr %1, i64 5
  store i8 0, ptr %13, align 1, !tbaa !39
  %15 = getelementptr inbounds nuw i8, ptr %3, i64 272
  %16 = load ptr, ptr %15, align 8, !tbaa !94
  %17 = getelementptr inbounds nuw i8, ptr %16, i64 248
  %18 = load ptr, ptr %17, align 8, !tbaa !41
  %19 = load i32, ptr %18, align 8, !tbaa !69
  %20 = trunc i32 %19 to i8
  %21 = getelementptr inbounds nuw i8, ptr %1, i64 6
  store ptr %21, ptr %5, align 8, !tbaa !18
  store i8 %20, ptr %14, align 1, !tbaa !39
  %22 = load ptr, ptr %15, align 8, !tbaa !94
  %23 = getelementptr inbounds nuw i8, ptr %22, i64 368
  %24 = load i64, ptr %23, align 8, !tbaa !21
  call void @H5F_addr_encode(ptr noundef %0, ptr noundef nonnull %5, i64 noundef %24) #6
  %25 = load ptr, ptr %15, align 8, !tbaa !94
  %26 = getelementptr inbounds nuw i8, ptr %25, i64 258
  %27 = load i8, ptr %26, align 2, !tbaa !44
  %.not = icmp eq i8 %27, 0
  br i1 %.not, label %56, label %28

28:                                               ; preds = %12
  %29 = getelementptr inbounds nuw i8, ptr %25, i64 248
  %30 = load ptr, ptr %29, align 8, !tbaa !41
  %31 = getelementptr inbounds nuw i8, ptr %30, i64 48
  %32 = load ptr, ptr %31, align 8, !tbaa !95
  %33 = load ptr, ptr %5, align 8, !tbaa !18
  %34 = getelementptr inbounds nuw i8, ptr %3, i64 248
  %35 = load ptr, ptr %34, align 8, !tbaa !85
  %36 = zext i8 %27 to i64
  %37 = getelementptr inbounds nuw i8, ptr %25, i64 456
  %38 = load ptr, ptr %37, align 8, !tbaa !86
  %39 = call i32 %32(ptr noundef %33, ptr noundef %35, i64 noundef %36, ptr noundef %38) #6
  %40 = icmp slt i32 %39, 0
  br i1 %40, label %41, label %45

41:                                               ; preds = %28
  %42 = load i64, ptr @H5E_EARRAY_g, align 8, !tbaa !15
  %43 = load i64, ptr @H5E_CANTENCODE_g, align 8, !tbaa !15
  %44 = call i32 (ptr, ptr, i32, i64, i64, ptr, ...) @H5E_printf_stack(ptr noundef nonnull @.str.5, ptr noundef nonnull @__func__.H5EA__cache_iblock_serialize, i32 noundef 839, i64 noundef %42, i64 noundef %43, ptr noundef nonnull @.str.25) #6
  br label %96

45:                                               ; preds = %28
  %46 = load ptr, ptr %15, align 8, !tbaa !94
  %47 = getelementptr inbounds nuw i8, ptr %46, i64 258
  %48 = load i8, ptr %47, align 2, !tbaa !44
  %49 = zext i8 %48 to i64
  %50 = getelementptr inbounds nuw i8, ptr %46, i64 256
  %51 = load i8, ptr %50, align 8, !tbaa !42
  %52 = zext i8 %51 to i64
  %53 = mul nuw nsw i64 %52, %49
  %54 = load ptr, ptr %5, align 8, !tbaa !18
  %55 = getelementptr inbounds nuw i8, ptr %54, i64 %53
  store ptr %55, ptr %5, align 8, !tbaa !18
  br label %56

56:                                               ; preds = %45, %12
  %57 = getelementptr inbounds nuw i8, ptr %3, i64 312
  %58 = load i64, ptr %57, align 8, !tbaa !87
  %.not35 = icmp eq i64 %58, 0
  br i1 %.not35, label %.loopexit38, label %.lr.ph

.lr.ph:                                           ; preds = %56
  %59 = getelementptr inbounds nuw i8, ptr %3, i64 256
  br label %60

60:                                               ; preds = %.lr.ph, %60
  %.03339 = phi i64 [ 0, %.lr.ph ], [ %64, %60 ]
  %61 = load ptr, ptr %59, align 8, !tbaa !88
  %62 = getelementptr inbounds nuw i64, ptr %61, i64 %.03339
  %63 = load i64, ptr %62, align 8, !tbaa !15
  call void @H5F_addr_encode(ptr noundef %0, ptr noundef nonnull %5, i64 noundef %63) #6
  %64 = add nuw i64 %.03339, 1
  %65 = load i64, ptr %57, align 8, !tbaa !87
  %66 = icmp ult i64 %64, %65
  br i1 %66, label %60, label %.loopexit38, !llvm.loop !96

.loopexit38:                                      ; preds = %60, %56
  %67 = getelementptr inbounds nuw i8, ptr %3, i64 320
  %68 = load i64, ptr %67, align 8, !tbaa !90
  %.not36 = icmp eq i64 %68, 0
  br i1 %.not36, label %.loopexit, label %.lr.ph41

.lr.ph41:                                         ; preds = %.loopexit38
  %69 = getelementptr inbounds nuw i8, ptr %3, i64 264
  br label %70

70:                                               ; preds = %.lr.ph41, %70
  %.040 = phi i64 [ 0, %.lr.ph41 ], [ %74, %70 ]
  %71 = load ptr, ptr %69, align 8, !tbaa !91
  %72 = getelementptr inbounds nuw i64, ptr %71, i64 %.040
  %73 = load i64, ptr %72, align 8, !tbaa !15
  call void @H5F_addr_encode(ptr noundef %0, ptr noundef nonnull %5, i64 noundef %73) #6
  %74 = add nuw i64 %.040, 1
  %75 = load i64, ptr %67, align 8, !tbaa !90
  %76 = icmp ult i64 %74, %75
  br i1 %76, label %70, label %.loopexit, !llvm.loop !97

.loopexit:                                        ; preds = %70, %.loopexit38
  %77 = load ptr, ptr %5, align 8, !tbaa !18
  %78 = ptrtoint ptr %77 to i64
  %79 = ptrtoint ptr %1 to i64
  %80 = sub i64 %78, %79
  %81 = call i32 @H5_checksum_metadata(ptr noundef nonnull %1, i64 noundef %80, i32 noundef 0) #6
  %82 = trunc i32 %81 to i8
  %83 = load ptr, ptr %5, align 8, !tbaa !18
  store i8 %82, ptr %83, align 1, !tbaa !39
  %84 = load ptr, ptr %5, align 8, !tbaa !18
  %85 = getelementptr inbounds nuw i8, ptr %84, i64 1
  store ptr %85, ptr %5, align 8, !tbaa !18
  %86 = lshr i32 %81, 8
  %87 = trunc i32 %86 to i8
  store i8 %87, ptr %85, align 1, !tbaa !39
  %88 = load ptr, ptr %5, align 8, !tbaa !18
  %89 = getelementptr inbounds nuw i8, ptr %88, i64 1
  store ptr %89, ptr %5, align 8, !tbaa !18
  %90 = lshr i32 %81, 16
  %91 = trunc i32 %90 to i8
  store i8 %91, ptr %89, align 1, !tbaa !39
  %92 = load ptr, ptr %5, align 8, !tbaa !18
  %93 = getelementptr inbounds nuw i8, ptr %92, i64 1
  %94 = lshr i32 %81, 24
  %95 = trunc nuw i32 %94 to i8
  store i8 %95, ptr %93, align 1, !tbaa !39
  br label %96

96:                                               ; preds = %41, %.loopexit, %4
  %.034 = phi i32 [ -1, %41 ], [ 0, %.loopexit ], [ 0, %4 ]
  call void @llvm.lifetime.end.p0(i64 8, ptr nonnull %5) #6
  ret i32 %.034
}